; ModuleID = 'source-C-CXX/57/1285.c'
source_filename = "source-C-CXX/57/1285.c"
target datalayout = "e-m:e-p270:32:32-p271:32:32-p272:64:64-i64:64-f80:128-n8:16:32:64-S128"
target triple = "x86_64-pc-linux-gnu"

%struct._IO_FILE = type { i32, i8*, i8*, i8*, i8*, i8*, i8*, i8*, i8*, i8*, i8*, i8*, %struct._IO_marker*, %struct._IO_FILE*, i32, i32, i64, i16, i8, [1 x i8], i8*, i64, %struct._IO_codecvt*, %struct._IO_wide_data*, %struct._IO_FILE*, i8*, i64, i32, [20 x i8] }
%struct._IO_marker = type opaque
%struct._IO_codecvt = type opaque
%struct._IO_wide_data = type opaque

@.str = private unnamed_addr constant [3 x i8] c"%d\00", align 1
@stdin = external local_unnamed_addr global %struct._IO_FILE*, align 8
@str = private unnamed_addr constant [2 x i8] c"1\00", align 1
@str.3 = private unnamed_addr constant [2 x i8] c"0\00", align 1

; Function Attrs: nounwind sspstrong uwtable
define dso_local i32 @main() local_unnamed_addr #0 {
  %1 = alloca i32, align 4
  %2 = bitcast i32* %1 to i8*
  call void @llvm.lifetime.start.p0i8(i64 4, i8* nonnull %2) #7
  %3 = tail call noalias align 16 dereferenceable_or_null(81) i8* @malloc(i64 81) #7
  %4 = call i32 (i8*, ...) @__isoc99_scanf(i8* getelementptr inbounds ([3 x i8], [3 x i8]* @.str, i64 0, i64 0), i32* nonnull %1)
  %5 = load %struct._IO_FILE*, %struct._IO_FILE** @stdin, align 8, !tbaa !5
  %6 = call i32 @getc(%struct._IO_FILE* %5) #7
  %7 = load i32, i32* %1, align 4, !tbaa !9
  %8 = icmp sgt i32 %7, 0
  br i1 %8, label %9, label %53

9:                                                ; preds = %0, %47
  %10 = phi i32 [ %50, %47 ], [ 0, %0 ]
  %11 = call i32 (i8*, ...) bitcast (i32 (...)* @gets to i32 (i8*, ...)*)(i8* %3) #7
  %12 = call i64 @strlen(i8* noundef nonnull dereferenceable(1) %3) #8
  %13 = trunc i64 %12 to i32
  %14 = icmp sgt i32 %13, 0
  br i1 %14, label %15, label %47

15:                                               ; preds = %9
  %16 = and i64 %12, 4294967295
  br label %17

17:                                               ; preds = %15, %42
  %18 = phi i64 [ 0, %15 ], [ %43, %42 ]
  %19 = icmp eq i64 %18, 0
  br i1 %19, label %20, label %29

20:                                               ; preds = %17
  %21 = load i8, i8* %3, align 16, !tbaa !11
  %22 = add i8 %21, -97
  %23 = icmp ult i8 %22, 26
  br i1 %23, label %42, label %24

24:                                               ; preds = %20
  %25 = add i8 %21, -65
  %26 = icmp ult i8 %25, 26
  %27 = icmp eq i8 %21, 95
  %28 = or i1 %27, %26
  br i1 %28, label %42, label %47

29:                                               ; preds = %17
  %30 = getelementptr inbounds i8, i8* %3, i64 %18
  %31 = load i8, i8* %30, align 1, !tbaa !11
  %32 = add i8 %31, -97
  %33 = icmp ult i8 %32, 26
  br i1 %33, label %42, label %34

34:                                               ; preds = %29
  %35 = add i8 %31, -65
  %36 = icmp ult i8 %35, 26
  %37 = icmp eq i8 %31, 95
  %38 = or i1 %37, %36
  %39 = add i8 %31, -48
  %40 = icmp ult i8 %39, 10
  %41 = or i1 %40, %38
  br i1 %41, label %42, label %47

42:                                               ; preds = %29, %34, %20, %24
  %43 = add nuw nsw i64 %18, 1
  %44 = icmp eq i64 %43, %16
  br i1 %44, label %45, label %17, !llvm.loop !12

45:                                               ; preds = %42
  %46 = select i1 %14, i8* getelementptr inbounds ([2 x i8], [2 x i8]* @str, i64 0, i64 0), i8* getelementptr inbounds ([2 x i8], [2 x i8]* @str.3, i64 0, i64 0)
  br label %47

47:                                               ; preds = %24, %34, %45, %9
  %48 = phi i8* [ getelementptr inbounds ([2 x i8], [2 x i8]* @str.3, i64 0, i64 0), %9 ], [ %46, %45 ], [ getelementptr inbounds ([2 x i8], [2 x i8]* @str.3, i64 0, i64 0), %34 ], [ getelementptr inbounds ([2 x i8], [2 x i8]* @str.3, i64 0, i64 0), %24 ]
  %49 = call i32 @puts(i8* nonnull dereferenceable(1) %48)
  %50 = add nuw nsw i32 %10, 1
  %51 = load i32, i32* %1, align 4, !tbaa !9
  %52 = icmp slt i32 %50, %51
  br i1 %52, label %9, label %53, !llvm.loop !14

53:                                               ; preds = %47, %0
  call void @llvm.lifetime.end.p0i8(i64 4, i8* nonnull %2) #7
  ret i32 0
}

; Function Attrs: argmemonly mustprogress nofree nosync nounwind willreturn
declare void @llvm.lifetime.start.p0i8(i64 immarg, i8* nocapture) #1

; Function Attrs: inaccessiblememonly mustprogress nofree nounwind willreturn
declare noalias noundef align 16 i8* @malloc(i64 noundef) local_unnamed_addr #2

; Function Attrs: nofree nounwind
declare noundef i32 @__isoc99_scanf(i8* nocapture noundef readonly, ...) local_unnamed_addr #3

declare i32 @gets(...) local_unnamed_addr #4

; Function Attrs: argmemonly mustprogress nofree nounwind readonly willreturn
declare i64 @strlen(i8* nocapture) local_unnamed_addr #5

; Function Attrs: argmemonly mustprogress nofree nosync nounwind willreturn
declare void @llvm.lifetime.end.p0i8(i64 immarg, i8* nocapture) #1

; Function Attrs: nofree nounwind
declare noundef i32 @getc(%struct._IO_FILE* nocapture noundef) local_unnamed_addr #3

; Function Attrs: nofree nounwind
declare noundef i32 @puts(i8* nocapture noundef readonly) local_unnamed_addr #6


!llvm.module.flags = !{!0, !1, !2, !3}
!llvm.ident = !{!4}

!0 = !{i32 1, !"wchar_size", i32 4}
!1 = !{i32 7, !"PIC Level", i32 2}
!2 = !{i32 7, !"PIE Level", i32 2}
!3 = !{i32 7, !"uwtable", i32 1}
!4 = !{!"clang version 13.0.0"}
!5 = !{!6, !6, i64 0}
!6 = !{!"any pointer", !7, i64 0}
!7 = !{!"omnipotent char", !8, i64 0}
!8 = !{!"Simple C/C++ TBAA"}
!9 = !{!10, !10, i64 0}
!10 = !{!"int", !7, i64 0}
!11 = !{!7, !7, i64 0}
!12 = distinct !{!12, !13}
!13 = !{!"llvm.loop.mustprogress"}
!14 = distinct !{!14, !13}
